target datalayout = "e-m:e-p270:32:32-p271:32:32-p272:64:64-i64:64-i128:128-f80:128-n8:16:32:64-S128"
target triple = "x86_64-pc-linux-gnu"

%struct.FunctionCallInfoBaseData = type { ptr, ptr, ptr, i32, i8, i16, [0 x %struct.NullableDatum] }
%struct.NullableDatum = type { i64, i8 }
%struct.GISTENTRY = type { i64, ptr, ptr, i16, i8 }
%struct.BOX = type { %struct.Point, %struct.Point }
%struct.Point = type { double, double }
%struct.CIRCLE = type { %struct.Point, double }

; Function Attrs: inlinehint nounwind uwtable
define internal double @float8_mi(double noundef %0, double noundef %1) #2 {
  %3 = alloca double, align 8
  %4 = alloca double, align 8
  %5 = alloca double, align 8
  store double %0, ptr %3, align 8
  store double %1, ptr %4, align 8
  call void @llvm.lifetime.start.p0(i64 8, ptr %5) #10
  %6 = load double, ptr %3, align 8
  %7 = load double, ptr %4, align 8
  %8 = fsub double %6, %7
  store double %8, ptr %5, align 8
  %9 = load double, ptr %5, align 8
  %10 = call i1 @llvm.is.fpclass.f64(double %9, i32 516)
  %11 = zext i1 %10 to i32
  %12 = icmp ne i32 %11, 0
  %13 = zext i1 %12 to i32
  %14 = sext i32 %13 to i64
  %15 = call i64 @llvm.expect.i64(i64 %14, i64 0)
  %16 = icmp ne i64 %15, 0
  br i1 %16, label %17, label %24

17:                                               ; preds = %2
  %18 = load double, ptr %3, align 8
  %19 = call i1 @llvm.is.fpclass.f64(double %18, i32 516)
  br i1 %19, label %24, label %20

20:                                               ; preds = %17
  %21 = load double, ptr %4, align 8
  %22 = call i1 @llvm.is.fpclass.f64(double %21, i32 516)
  br i1 %22, label %24, label %23

23:                                               ; preds = %20
  call void @float_overflow_error() #12
  unreachable

24:                                               ; preds = %20, %17, %2
  %25 = load double, ptr %5, align 8
  call void @llvm.lifetime.end.p0(i64 8, ptr %5) #10
  ret double %25
}

; Function Attrs: inlinehint nounwind uwtable
define internal double @float8_pl(double noundef %0, double noundef %1) #2 {
  %3 = alloca double, align 8
  %4 = alloca double, align 8
  %5 = alloca double, align 8
  store double %0, ptr %3, align 8
  store double %1, ptr %4, align 8
  call void @llvm.lifetime.start.p0(i64 8, ptr %5) #10
  %6 = load double, ptr %3, align 8
  %7 = load double, ptr %4, align 8
  %8 = fadd double %6, %7
  store double %8, ptr %5, align 8
  %9 = load double, ptr %5, align 8
  %10 = call i1 @llvm.is.fpclass.f64(double %9, i32 516)
  %11 = zext i1 %10 to i32
  %12 = icmp ne i32 %11, 0
  %13 = zext i1 %12 to i32
  %14 = sext i32 %13 to i64
  %15 = call i64 @llvm.expect.i64(i64 %14, i64 0)
  %16 = icmp ne i64 %15, 0
  br i1 %16, label %17, label %24

17:                                               ; preds = %2
  %18 = load double, ptr %3, align 8
  %19 = call i1 @llvm.is.fpclass.f64(double %18, i32 516)
  br i1 %19, label %24, label %20

20:                                               ; preds = %17
  %21 = load double, ptr %4, align 8
  %22 = call i1 @llvm.is.fpclass.f64(double %21, i32 516)
  br i1 %22, label %24, label %23

23:                                               ; preds = %20
  call void @float_overflow_error() #12
  unreachable

24:                                               ; preds = %20, %17, %2
  %25 = load double, ptr %5, align 8
  call void @llvm.lifetime.end.p0(i64 8, ptr %5) #10
  ret double %25
}

; Function Attrs: inlinehint nounwind uwtable
define internal i64 @BoolGetDatum(i1 noundef zeroext %0) #2 {
  %2 = alloca i8, align 1
  %3 = zext i1 %0 to i8
  store i8 %3, ptr %2, align 1
  %4 = load i8, ptr %2, align 1, !range !4, !noundef !5
  %5 = trunc i8 %4 to i1
  %6 = select i1 %5, i32 1, i32 0
  %7 = sext i32 %6 to i64
  ret i64 %7
}

; Function Attrs: inlinehint nounwind uwtable
define internal ptr @DatumGetBoxP(i64 noundef %0) #2 {
  %2 = alloca i64, align 8
  store i64 %0, ptr %2, align 8
  %3 = load i64, ptr %2, align 8
  %4 = call ptr @DatumGetPointer(i64 noundef %3)
  ret ptr %4
}

; Function Attrs: inlinehint nounwind uwtable
define internal zeroext i16 @DatumGetUInt16(i64 noundef %0) #2 {
  %2 = alloca i64, align 8
  store i64 %0, ptr %2, align 8
  %3 = load i64, ptr %2, align 8
  %4 = trunc i64 %3 to i16
  ret i16 %4
}

; Function Attrs: inlinehint nounwind uwtable
define internal ptr @DatumGetCircleP(i64 noundef %0) #2 {
  %2 = alloca i64, align 8
  store i64 %0, ptr %2, align 8
  %3 = load i64, ptr %2, align 8
  %4 = call ptr @DatumGetPointer(i64 noundef %3)
  ret ptr %4
}

; Function Attrs: inlinehint nounwind uwtable
define internal ptr @DatumGetPointer(i64 noundef %0) #2 {
  %2 = alloca i64, align 8
  store i64 %0, ptr %2, align 8
  %3 = load i64, ptr %2, align 8
  %4 = inttoptr i64 %3 to ptr
  ret ptr %4
}

; Function Attrs: nounwind uwtable
define dso_local i64 @gist_circle_consistent(ptr noundef %0) #0 {
  %2 = alloca i64, align 8
  %3 = alloca ptr, align 8
  %4 = alloca ptr, align 8
  %5 = alloca ptr, align 8
  %6 = alloca i16, align 2
  %7 = alloca ptr, align 8
  %8 = alloca %struct.BOX, align 8
  %9 = alloca i8, align 1
  %10 = alloca i32, align 4
  store ptr %0, ptr %3, align 8
  call void @llvm.lifetime.start.p0(i64 8, ptr %4) #10
  %11 = load ptr, ptr %3, align 8
  %12 = getelementptr inbounds nuw %struct.FunctionCallInfoBaseData, ptr %11, i32 0, i32 6
  %13 = getelementptr inbounds [0 x %struct.NullableDatum], ptr %12, i64 0, i64 0
  %14 = getelementptr inbounds nuw %struct.NullableDatum, ptr %13, i32 0, i32 0
  %15 = load i64, ptr %14, align 8
  %16 = call ptr @DatumGetPointer(i64 noundef %15)
  store ptr %16, ptr %4, align 8
  call void @llvm.lifetime.start.p0(i64 8, ptr %5) #10
  %17 = load ptr, ptr %3, align 8
  %18 = getelementptr inbounds nuw %struct.FunctionCallInfoBaseData, ptr %17, i32 0, i32 6
  %19 = getelementptr inbounds [0 x %struct.NullableDatum], ptr %18, i64 0, i64 1
  %20 = getelementptr inbounds nuw %struct.NullableDatum, ptr %19, i32 0, i32 0
  %21 = load i64, ptr %20, align 8
  %22 = call ptr @DatumGetCircleP(i64 noundef %21)
  store ptr %22, ptr %5, align 8
  call void @llvm.lifetime.start.p0(i64 2, ptr %6) #10
  %23 = load ptr, ptr %3, align 8
  %24 = getelementptr inbounds nuw %struct.FunctionCallInfoBaseData, ptr %23, i32 0, i32 6
  %25 = getelementptr inbounds [0 x %struct.NullableDatum], ptr %24, i64 0, i64 2
  %26 = getelementptr inbounds nuw %struct.NullableDatum, ptr %25, i32 0, i32 0
  %27 = load i64, ptr %26, align 8
  %28 = call zeroext i16 @DatumGetUInt16(i64 noundef %27)
  store i16 %28, ptr %6, align 2
  call void @llvm.lifetime.start.p0(i64 8, ptr %7) #10
  %29 = load ptr, ptr %3, align 8
  %30 = getelementptr inbounds nuw %struct.FunctionCallInfoBaseData, ptr %29, i32 0, i32 6
  %31 = getelementptr inbounds [0 x %struct.NullableDatum], ptr %30, i64 0, i64 4
  %32 = getelementptr inbounds nuw %struct.NullableDatum, ptr %31, i32 0, i32 0
  %33 = load i64, ptr %32, align 8
  %34 = call ptr @DatumGetPointer(i64 noundef %33)
  store ptr %34, ptr %7, align 8
  call void @llvm.lifetime.start.p0(i64 32, ptr %8) #10
  call void @llvm.lifetime.start.p0(i64 1, ptr %9) #10
  %35 = load ptr, ptr %7, align 8
  store i8 1, ptr %35, align 1
  %36 = load ptr, ptr %4, align 8
  %37 = getelementptr inbounds nuw %struct.GISTENTRY, ptr %36, i32 0, i32 0
  %38 = load i64, ptr %37, align 8
  %39 = call ptr @DatumGetBoxP(i64 noundef %38)
  %40 = icmp eq ptr %39, null
  br i1 %40, label %44, label %41

41:                                               ; preds = %1
  %42 = load ptr, ptr %5, align 8
  %43 = icmp eq ptr %42, null
  br i1 %43, label %44, label %46

44:                                               ; preds = %41, %1
  %45 = call i64 @BoolGetDatum(i1 noundef zeroext false)
  store i64 %45, ptr %2, align 8
  store i32 1, ptr %10, align 4
  br label %97

46:                                               ; preds = %41
  %47 = load ptr, ptr %5, align 8
  %48 = getelementptr inbounds nuw %struct.CIRCLE, ptr %47, i32 0, i32 0
  %49 = getelementptr inbounds nuw %struct.Point, ptr %48, i32 0, i32 0
  %50 = load double, ptr %49, align 8
  %51 = load ptr, ptr %5, align 8
  %52 = getelementptr inbounds nuw %struct.CIRCLE, ptr %51, i32 0, i32 1
  %53 = load double, ptr %52, align 8
  %54 = call double @float8_pl(double noundef %50, double noundef %53)
  %55 = getelementptr inbounds nuw %struct.BOX, ptr %8, i32 0, i32 0
  %56 = getelementptr inbounds nuw %struct.Point, ptr %55, i32 0, i32 0
  store double %54, ptr %56, align 8
  %57 = load ptr, ptr %5, align 8
  %58 = getelementptr inbounds nuw %struct.CIRCLE, ptr %57, i32 0, i32 0
  %59 = getelementptr inbounds nuw %struct.Point, ptr %58, i32 0, i32 0
  %60 = load double, ptr %59, align 8
  %61 = load ptr, ptr %5, align 8
  %62 = getelementptr inbounds nuw %struct.CIRCLE, ptr %61, i32 0, i32 1
  %63 = load double, ptr %62, align 8
  %64 = call double @float8_mi(double noundef %60, double noundef %63)
  %65 = getelementptr inbounds nuw %struct.BOX, ptr %8, i32 0, i32 1
  %66 = getelementptr inbounds nuw %struct.Point, ptr %65, i32 0, i32 0
  store double %64, ptr %66, align 8
  %67 = load ptr, ptr %5, align 8
  %68 = getelementptr inbounds nuw %struct.CIRCLE, ptr %67, i32 0, i32 0
  %69 = getelementptr inbounds nuw %struct.Point, ptr %68, i32 0, i32 1
  %70 = load double, ptr %69, align 8
  %71 = load ptr, ptr %5, align 8
  %72 = getelementptr inbounds nuw %struct.CIRCLE, ptr %71, i32 0, i32 1
  %73 = load double, ptr %72, align 8
  %74 = call double @float8_pl(double noundef %70, double noundef %73)
  %75 = getelementptr inbounds nuw %struct.BOX, ptr %8, i32 0, i32 0
  %76 = getelementptr inbounds nuw %struct.Point, ptr %75, i32 0, i32 1
  store double %74, ptr %76, align 8
  %77 = load ptr, ptr %5, align 8
  %78 = getelementptr inbounds nuw %struct.CIRCLE, ptr %77, i32 0, i32 0
  %79 = getelementptr inbounds nuw %struct.Point, ptr %78, i32 0, i32 1
  %80 = load double, ptr %79, align 8
  %81 = load ptr, ptr %5, align 8
  %82 = getelementptr inbounds nuw %struct.CIRCLE, ptr %81, i32 0, i32 1
  %83 = load double, ptr %82, align 8
  %84 = call double @float8_mi(double noundef %80, double noundef %83)
  %85 = getelementptr inbounds nuw %struct.BOX, ptr %8, i32 0, i32 1
  %86 = getelementptr inbounds nuw %struct.Point, ptr %85, i32 0, i32 1
  store double %84, ptr %86, align 8
  %87 = load ptr, ptr %4, align 8
  %88 = getelementptr inbounds nuw %struct.GISTENTRY, ptr %87, i32 0, i32 0
  %89 = load i64, ptr %88, align 8
  %90 = call ptr @DatumGetBoxP(i64 noundef %89)
  %91 = load i16, ptr %6, align 2
  %92 = call zeroext i1 @rtree_internal_consistent(ptr noundef %90, ptr noundef %8, i16 noundef zeroext %91)
  %93 = zext i1 %92 to i8
  store i8 %93, ptr %9, align 1
  %94 = load i8, ptr %9, align 1, !range !4, !noundef !5
  %95 = trunc i8 %94 to i1
  %96 = call i64 @BoolGetDatum(i1 noundef zeroext %95)
  store i64 %96, ptr %2, align 8
  store i32 1, ptr %10, align 4
  br label %97

97:                                               ; preds = %46, %44
  call void @llvm.lifetime.end.p0(i64 1, ptr %9) #10
  call void @llvm.lifetime.end.p0(i64 32, ptr %8) #10
  call void @llvm.lifetime.end.p0(i64 8, ptr %7) #10
  call void @llvm.lifetime.end.p0(i64 2, ptr %6) #10
  call void @llvm.lifetime.end.p0(i64 8, ptr %5) #10
  call void @llvm.lifetime.end.p0(i64 8, ptr %4) #10
  %98 = load i64, ptr %2, align 8
  ret i64 %98
}