; Function Attrs: nounwind uwtable
define dso_local range(i64 0, 2) i64 @gist_circle_consistent(ptr noundef readonly captures(none) %0) #0 {
  %2 = alloca %struct.BOX, align 8
  %3 = getelementptr inbounds nuw i8, ptr %0, i64 32
  %4 = load i64, ptr %3, align 8
  %5 = inttoptr i64 %4 to ptr
  %6 = getelementptr inbounds nuw i8, ptr %0, i64 48
  %7 = load i64, ptr %6, align 8
  %8 = inttoptr i64 %7 to ptr
  %9 = getelementptr inbounds nuw i8, ptr %0, i64 64
  %10 = load i64, ptr %9, align 8
  %11 = trunc i64 %10 to i16
  %12 = getelementptr inbounds nuw i8, ptr %0, i64 96
  %13 = load i64, ptr %12, align 8
  %14 = inttoptr i64 %13 to ptr
  call void @llvm.lifetime.start.p0(i64 32, ptr nonnull %2) #16
  store i8 1, ptr %14, align 1
  %15 = load i64, ptr %5, align 8
  %16 = icmp eq i64 %15, 0
  %17 = icmp eq i64 %7, 0
  %or.cond = select i1 %16, i1 true, i1 %17
  br i1 %or.cond, label %66, label %18

18:                                               ; preds = %1
  %19 = load double, ptr %8, align 8
  %20 = getelementptr inbounds nuw i8, ptr %8, i64 16
  %21 = load double, ptr %20, align 8
  %22 = fadd double %19, %21
  %23 = tail call double @llvm.fabs.f64(double %22)
  %24 = fcmp oeq double %23, 0x7FF0000000000000
  br i1 %24, label %25, label %float8_pl.exit, !prof !6

25:                                               ; preds = %18
  %26 = tail call double @llvm.fabs.f64(double %19)
  %27 = fcmp oeq double %26, 0x7FF0000000000000
  %28 = tail call double @llvm.fabs.f64(double %21)
  %29 = fcmp oeq double %28, 0x7FF0000000000000
  %or.cond.i = or i1 %27, %29
  br i1 %or.cond.i, label %float8_pl.exit, label %30

30:                                               ; preds = %25
  tail call void @float_overflow_error() #17
  unreachable

float8_pl.exit:                                   ; preds = %18, %25
  store double %22, ptr %2, align 8
  %31 = fsub double %19, %21
  %32 = tail call double @llvm.fabs.f64(double %31)
  %33 = fcmp oeq double %32, 0x7FF0000000000000
  br i1 %33, label %34, label %float8_mi.exit, !prof !6

34:                                               ; preds = %float8_pl.exit
  %35 = tail call double @llvm.fabs.f64(double %19)
  %36 = fcmp oeq double %35, 0x7FF0000000000000
  %37 = tail call double @llvm.fabs.f64(double %21)
  %38 = fcmp oeq double %37, 0x7FF0000000000000
  %or.cond.i20 = or i1 %38, %36
  br i1 %or.cond.i20, label %float8_mi.exit, label %39

39:                                               ; preds = %34
  tail call void @float_overflow_error() #17
  unreachable

float8_mi.exit:                                   ; preds = %float8_pl.exit, %34
  %40 = getelementptr inbounds nuw i8, ptr %2, i64 16
  store double %31, ptr %40, align 8
  %41 = getelementptr inbounds nuw i8, ptr %8, i64 8
  %42 = load double, ptr %41, align 8
  %43 = fadd double %42, %21
  %44 = tail call double @llvm.fabs.f64(double %43)
  %45 = fcmp oeq double %44, 0x7FF0000000000000
  br i1 %45, label %46, label %float8_pl.exit22, !prof !6

46:                                               ; preds = %float8_mi.exit
  %47 = tail call double @llvm.fabs.f64(double %42)
  %48 = fcmp oeq double %47, 0x7FF0000000000000
  %49 = tail call double @llvm.fabs.f64(double %21)
  %50 = fcmp oeq double %49, 0x7FF0000000000000
  %or.cond.i21 = or i1 %48, %50
  br i1 %or.cond.i21, label %float8_pl.exit22, label %51

51:                                               ; preds = %46
  tail call void @float_overflow_error() #17
  unreachable

float8_pl.exit22:                                 ; preds = %float8_mi.exit, %46
  %52 = getelementptr inbounds nuw i8, ptr %2, i64 8
  store double %43, ptr %52, align 8
  %53 = fsub double %42, %21
  %54 = tail call double @llvm.fabs.f64(double %53)
  %55 = fcmp oeq double %54, 0x7FF0000000000000
  br i1 %55, label %56, label %float8_mi.exit24, !prof !6

56:                                               ; preds = %float8_pl.exit22
  %57 = tail call double @llvm.fabs.f64(double %42)
  %58 = fcmp oeq double %57, 0x7FF0000000000000
  %59 = tail call double @llvm.fabs.f64(double %21)
  %60 = fcmp oeq double %59, 0x7FF0000000000000
  %or.cond.i23 = or i1 %60, %58
  br i1 %or.cond.i23, label %float8_mi.exit24, label %61

61:                                               ; preds = %56
  tail call void @float_overflow_error() #17
  unreachable

float8_mi.exit24:                                 ; preds = %float8_pl.exit22, %56
  %62 = getelementptr inbounds nuw i8, ptr %2, i64 24
  store double %53, ptr %62, align 8
  %63 = inttoptr i64 %15 to ptr
  %64 = call fastcc zeroext i1 @rtree_internal_consistent(ptr noundef %63, ptr noundef %2, i16 noundef zeroext %11)
  %65 = zext i1 %64 to i64
  br label %66

66:                                               ; preds = %1, %float8_mi.exit24
  %.0 = phi i64 [ %65, %float8_mi.exit24 ], [ 0, %1 ]
  call void @llvm.lifetime.end.p0(i64 32, ptr nonnull %2) #16
  ret i64 %.0
}